; Function Attrs: mustprogress nofree norecurse nosync nounwind willreturn memory(argmem: write) uwtable
define void @_ZN11duckdb_zstd31ZSTD_referenceExternalSequencesEPNS_11ZSTD_CCtx_sEPNS_6rawSeqEm(ptr noundef writeonly captures(none) initializes((3160, 3200)) %0, ptr noundef %1, i64 noundef %2) local_unnamed_addr #8 {
  %4 = getelementptr inbounds nuw i8, ptr %0, i64 3160
  store ptr %1, ptr %4, align 8, !tbaa !248
  %5 = getelementptr inbounds nuw i8, ptr %0, i64 3184
  store i64 %2, ptr %5, align 8, !tbaa !249
  %6 = getelementptr inbounds nuw i8, ptr %0, i64 3192
  store i64 %2, ptr %6, align 8, !tbaa !250
  %7 = getelementptr inbounds nuw i8, ptr %0, i64 3168
  tail call void @llvm.memset.p0.i64(ptr noundef nonnull align 8 dereferenceable(16) %7, i8 0, i64 16, i1 false)
  ret void
}